target datalayout = "e-m:e-p270:32:32-p271:32:32-p272:64:64-i64:64-i128:128-f80:128-n8:16:32:64-S128"
target triple = "x86_64-pc-linux-gnu"

%struct.evp_test_st = type { %struct.stanza_st, ptr, i32, ptr, ptr, ptr, ptr, ptr, ptr, i32 }
%struct.stanza_st = type { ptr, ptr, i32, i32, i32, i32, i32, i32, [150 x %struct.pair_st], ptr, [32768 x i8] }
%struct.pair_st = type { ptr, ptr }
%struct.mac_data_st = type { ptr, ptr, i32, ptr, ptr, i64, ptr, i64, ptr, i64, ptr, i64, ptr, i64, ptr, i64, i32, i32, ptr, i32, i32 }

@propquery = internal global ptr null, align 8
@libctx = internal global ptr null, align 8
@.str.29 = private unnamed_addr constant [27 x i8] c"../openssl/test/evp_test.c\00", align 1
@.str.101 = private unnamed_addr constant [5 x i8] c"HMAC\00", align 1
@.str.134 = private unnamed_addr constant [27 x i8] c"skipping, '%s' is disabled\00", align 1
@.str.214 = private unnamed_addr constant [37 x i8] c"mdat = OPENSSL_zalloc(sizeof(*mdat))\00", align 1
@mac_test_init.epilogue = internal constant [13 x i8] c" by EVP_PKEY\00", align 1
@.str.360 = private unnamed_addr constant [5 x i8] c"CMAC\00", align 1
@.str.361 = private unnamed_addr constant [9 x i8] c"Poly1305\00", align 1
@.str.362 = private unnamed_addr constant [8 x i8] c"SipHash\00", align 1
@.str.363 = private unnamed_addr constant [37 x i8] c"mdat->mac_name = OPENSSL_strdup(alg)\00", align 1
@.str.364 = private unnamed_addr constant [46 x i8] c"mdat->controls = sk_OPENSSL_STRING_new_null()\00", align 1

; Function Attrs: nounwind uwtable
define internal i32 @is_mac_disabled(ptr noundef %0) #0 {
  %2 = alloca ptr, align 8
  store ptr %0, ptr %2, align 8, !tbaa !4
  ret i32 0
}

; Function Attrs: nounwind uwtable
define internal i32 @mac_test_init(ptr noundef %0, ptr noundef %1) #0 {
  %3 = alloca i32, align 4
  %4 = alloca ptr, align 8
  %5 = alloca ptr, align 8
  %6 = alloca ptr, align 8
  %7 = alloca i32, align 4
  %8 = alloca ptr, align 8
  %9 = alloca i32, align 4
  %10 = alloca i64, align 8
  store ptr %0, ptr %4, align 8, !tbaa !15
  store ptr %1, ptr %5, align 8, !tbaa !4
  call void @llvm.lifetime.start.p0(i64 8, ptr %6) #10
  store ptr null, ptr %6, align 8, !tbaa !296
  call void @llvm.lifetime.start.p0(i64 4, ptr %7) #10
  store i32 0, ptr %7, align 4, !tbaa !9
  call void @llvm.lifetime.start.p0(i64 8, ptr %8) #10
  %11 = load ptr, ptr %5, align 8, !tbaa !4
  %12 = call i32 @is_mac_disabled(ptr noundef %11)
  %13 = icmp ne i32 %12, 0
  br i1 %13, label %14, label %18

14:                                               ; preds = %2
  %15 = load ptr, ptr %5, align 8, !tbaa !4
  call void (ptr, i32, ptr, ...) @test_info(ptr noundef @.str.29, i32 noundef 1608, ptr noundef @.str.134, ptr noundef %15)
  %16 = load ptr, ptr %4, align 8, !tbaa !15
  %17 = getelementptr inbounds nuw %struct.evp_test_st, ptr %16, i32 0, i32 2
  store i32 1, ptr %17, align 8, !tbaa !24
  store i32 1, ptr %3, align 4
  store i32 1, ptr %9, align 4
  br label %110

18:                                               ; preds = %2
  %19 = load ptr, ptr @libctx, align 8, !tbaa !17
  %20 = load ptr, ptr %5, align 8, !tbaa !4
  %21 = load ptr, ptr @propquery, align 8, !tbaa !4
  %22 = call ptr @EVP_MAC_fetch(ptr noundef %19, ptr noundef %20, ptr noundef %21)
  store ptr %22, ptr %6, align 8, !tbaa !296
  %23 = icmp eq ptr %22, null
  br i1 %23, label %24, label %71

24:                                               ; preds = %18
  call void @llvm.lifetime.start.p0(i64 8, ptr %10) #10
  %25 = load ptr, ptr %5, align 8, !tbaa !4
  %26 = call i64 @strlen(ptr noundef %25) #11
  store i64 %26, ptr %10, align 8, !tbaa !13
  %27 = load i64, ptr %10, align 8, !tbaa !13
  %28 = icmp uge i64 %27, 13
  br i1 %28, label %29, label %39

29:                                               ; preds = %24
  %30 = load ptr, ptr %5, align 8, !tbaa !4
  %31 = load i64, ptr %10, align 8, !tbaa !13
  %32 = getelementptr inbounds nuw i8, ptr %30, i64 %31
  %33 = getelementptr inbounds i8, ptr %32, i64 -12
  %34 = call i32 @strcmp(ptr noundef %33, ptr noundef @mac_test_init.epilogue) #11
  %35 = icmp eq i32 %34, 0
  br i1 %35, label %36, label %39

36:                                               ; preds = %29
  %37 = load i64, ptr %10, align 8, !tbaa !13
  %38 = sub i64 %37, 12
  store i64 %38, ptr %10, align 8, !tbaa !13
  br label %39

39:                                               ; preds = %36, %29, %24
  %40 = load ptr, ptr %5, align 8, !tbaa !4
  %41 = load i64, ptr %10, align 8, !tbaa !13
  %42 = call i32 @strncmp(ptr noundef %40, ptr noundef @.str.101, i64 noundef %41) #11
  %43 = icmp eq i32 %42, 0
  br i1 %43, label %44, label %45

44:                                               ; preds = %39
  store i32 855, ptr %7, align 4, !tbaa !9
  br label %67

45:                                               ; preds = %39
  %46 = load ptr, ptr %5, align 8, !tbaa !4
  %47 = load i64, ptr %10, align 8, !tbaa !13
  %48 = call i32 @strncmp(ptr noundef %46, ptr noundef @.str.360, i64 noundef %47) #11
  %49 = icmp eq i32 %48, 0
  br i1 %49, label %50, label %51

50:                                               ; preds = %45
  store i32 894, ptr %7, align 4, !tbaa !9
  br label %66

51:                                               ; preds = %45
  %52 = load ptr, ptr %5, align 8, !tbaa !4
  %53 = load i64, ptr %10, align 8, !tbaa !13
  %54 = call i32 @strncmp(ptr noundef %52, ptr noundef @.str.361, i64 noundef %53) #11
  %55 = icmp eq i32 %54, 0
  br i1 %55, label %56, label %57

56:                                               ; preds = %51
  store i32 1061, ptr %7, align 4, !tbaa !9
  br label %65

57:                                               ; preds = %51
  %58 = load ptr, ptr %5, align 8, !tbaa !4
  %59 = load i64, ptr %10, align 8, !tbaa !13
  %60 = call i32 @strncmp(ptr noundef %58, ptr noundef @.str.362, i64 noundef %59) #11
  %61 = icmp eq i32 %60, 0
  br i1 %61, label %62, label %63

62:                                               ; preds = %57
  store i32 1062, ptr %7, align 4, !tbaa !9
  br label %64

63:                                               ; preds = %57
  store i32 0, ptr %3, align 4
  store i32 1, ptr %9, align 4
  br label %68

64:                                               ; preds = %62
  br label %65

65:                                               ; preds = %64, %56
  br label %66

66:                                               ; preds = %65, %50
  br label %67

67:                                               ; preds = %66, %44
  store i32 0, ptr %9, align 4
  br label %68

68:                                               ; preds = %67, %63
  call void @llvm.lifetime.end.p0(i64 8, ptr %10) #10
  %69 = load i32, ptr %9, align 4
  switch i32 %69, label %110 [
    i32 0, label %70
  ]

70:                                               ; preds = %68
  br label %71

71:                                               ; preds = %70, %18
  %72 = call noalias ptr @CRYPTO_zalloc(i64 noundef 152, ptr noundef @.str.29, i32 noundef 1637)
  store ptr %72, ptr %8, align 8, !tbaa !298
  %73 = call i32 @test_ptr(ptr noundef @.str.29, i32 noundef 1637, ptr noundef @.str.214, ptr noundef %72)
  %74 = icmp ne i32 %73, 0
  br i1 %74, label %76, label %75

75:                                               ; preds = %71
  store i32 0, ptr %3, align 4
  store i32 1, ptr %9, align 4
  br label %110

76:                                               ; preds = %71
  %77 = load i32, ptr %7, align 4, !tbaa !9
  %78 = load ptr, ptr %8, align 8, !tbaa !298
  %79 = getelementptr inbounds nuw %struct.mac_data_st, ptr %78, i32 0, i32 2
  store i32 %77, ptr %79, align 8, !tbaa !300
  %80 = load ptr, ptr %5, align 8, !tbaa !4
  %81 = call noalias ptr @CRYPTO_strdup(ptr noundef %80, ptr noundef @.str.29, i32 noundef 1641)
  %82 = load ptr, ptr %8, align 8, !tbaa !298
  %83 = getelementptr inbounds nuw %struct.mac_data_st, ptr %82, i32 0, i32 0
  store ptr %81, ptr %83, align 8, !tbaa !302
  %84 = call i32 @test_ptr(ptr noundef @.str.29, i32 noundef 1641, ptr noundef @.str.363, ptr noundef %81)
  %85 = icmp ne i32 %84, 0
  br i1 %85, label %88, label %86

86:                                               ; preds = %76
  %87 = load ptr, ptr %8, align 8, !tbaa !298
  call void @CRYPTO_free(ptr noundef %87, ptr noundef @.str.29, i32 noundef 1642)
  store i32 0, ptr %3, align 4
  store i32 1, ptr %9, align 4
  br label %110

88:                                               ; preds = %76
  %89 = load ptr, ptr %6, align 8, !tbaa !296
  %90 = load ptr, ptr %8, align 8, !tbaa !298
  %91 = getelementptr inbounds nuw %struct.mac_data_st, ptr %90, i32 0, i32 1
  store ptr %89, ptr %91, align 8, !tbaa !303
  %92 = call ptr @OPENSSL_sk_new_null()
  %93 = load ptr, ptr %8, align 8, !tbaa !298
  %94 = getelementptr inbounds nuw %struct.mac_data_st, ptr %93, i32 0, i32 18
  store ptr %92, ptr %94, align 8, !tbaa !304
  %95 = call i32 @test_ptr(ptr noundef @.str.29, i32 noundef 1647, ptr noundef @.str.364, ptr noundef %92)
  %96 = icmp ne i32 %95, 0
  br i1 %96, label %102, label %97

97:                                               ; preds = %88
  %98 = load ptr, ptr %8, align 8, !tbaa !298
  %99 = getelementptr inbounds nuw %struct.mac_data_st, ptr %98, i32 0, i32 0
  %100 = load ptr, ptr %99, align 8, !tbaa !302
  call void @CRYPTO_free(ptr noundef %100, ptr noundef @.str.29, i32 noundef 1648)
  %101 = load ptr, ptr %8, align 8, !tbaa !298
  call void @CRYPTO_free(ptr noundef %101, ptr noundef @.str.29, i32 noundef 1649)
  store i32 0, ptr %3, align 4
  store i32 1, ptr %9, align 4
  br label %110

102:                                              ; preds = %88
  %103 = load ptr, ptr %8, align 8, !tbaa !298
  %104 = getelementptr inbounds nuw %struct.mac_data_st, ptr %103, i32 0, i32 20
  store i32 -1, ptr %104, align 4, !tbaa !305
  %105 = load ptr, ptr %8, align 8, !tbaa !298
  %106 = getelementptr inbounds nuw %struct.mac_data_st, ptr %105, i32 0, i32 19
  store i32 -1, ptr %106, align 8, !tbaa !306
  %107 = load ptr, ptr %8, align 8, !tbaa !298
  %108 = load ptr, ptr %4, align 8, !tbaa !15
  %109 = getelementptr inbounds nuw %struct.evp_test_st, ptr %108, i32 0, i32 8
  store ptr %107, ptr %109, align 8, !tbaa !66
  store i32 1, ptr %3, align 4
  store i32 1, ptr %9, align 4
  br label %110

110:                                              ; preds = %102, %97, %86, %75, %68, %14
  call void @llvm.lifetime.end.p0(i64 8, ptr %8) #10
  call void @llvm.lifetime.end.p0(i64 4, ptr %7) #10
  call void @llvm.lifetime.end.p0(i64 8, ptr %6) #10
  %111 = load i32, ptr %3, align 4
  ret i32 %111
}